; Function Attrs: mustprogress nofree norecurse nosync nounwind willreturn memory(argmem: readwrite) uwtable
define internal noundef zeroext i1 @"_ZNSt17_Function_handlerIFfldEZN3gmx34VelocityScalingTemperatureCouplingC1EiiNS1_13UseFullStepKEENS1_33ReportPreviousStepConservedEnergyElidPKfS6_S6_PNS1_10EnergyDataE19TemperatureCouplingE3$_0E10_M_managerERSt9_Any_dataRKSC_St18_Manager_operation"(ptr nocapture noundef nonnull writeonly align 8 dereferenceable(16) %0, ptr noundef nonnull align 8 dereferenceable(16) %1, i32 noundef %2) #21 align 2 personality ptr @__gxx_personality_v0 {
  switch i32 %2, label %"_ZNSt14_Function_base13_Base_managerIZN3gmx34VelocityScalingTemperatureCouplingC1EiiNS1_13UseFullStepKEENS1_33ReportPreviousStepConservedEnergyElidPKfS6_S6_PNS1_10EnergyDataE19TemperatureCouplingE3$_0E10_M_managerERSt9_Any_dataRKSC_St18_Manager_operation.exit" [
    i32 0, label %4
    i32 1, label %5
    i32 2, label %6
  ]

4:                                                ; preds = %3
  store ptr @"_ZTIZN3gmx34VelocityScalingTemperatureCouplingC1EiiNS_13UseFullStepKEENS_33ReportPreviousStepConservedEnergyElidPKfS4_S4_PNS_10EnergyDataE19TemperatureCouplingE3$_0", ptr %0, align 8
  br label %"_ZNSt14_Function_base13_Base_managerIZN3gmx34VelocityScalingTemperatureCouplingC1EiiNS1_13UseFullStepKEENS1_33ReportPreviousStepConservedEnergyElidPKfS6_S6_PNS1_10EnergyDataE19TemperatureCouplingE3$_0E10_M_managerERSt9_Any_dataRKSC_St18_Manager_operation.exit"

5:                                                ; preds = %3
  store ptr %1, ptr %0, align 8
  br label %"_ZNSt14_Function_base13_Base_managerIZN3gmx34VelocityScalingTemperatureCouplingC1EiiNS1_13UseFullStepKEENS1_33ReportPreviousStepConservedEnergyElidPKfS6_S6_PNS1_10EnergyDataE19TemperatureCouplingE3$_0E10_M_managerERSt9_Any_dataRKSC_St18_Manager_operation.exit"

6:                                                ; preds = %3
  %.val.i = load i64, ptr %1, align 8
  store i64 %.val.i, ptr %0, align 8
  br label %"_ZNSt14_Function_base13_Base_managerIZN3gmx34VelocityScalingTemperatureCouplingC1EiiNS1_13UseFullStepKEENS1_33ReportPreviousStepConservedEnergyElidPKfS6_S6_PNS1_10EnergyDataE19TemperatureCouplingE3$_0E10_M_managerERSt9_Any_dataRKSC_St18_Manager_operation.exit"

"_ZNSt14_Function_base13_Base_managerIZN3gmx34VelocityScalingTemperatureCouplingC1EiiNS1_13UseFullStepKEENS1_33ReportPreviousStepConservedEnergyElidPKfS6_S6_PNS1_10EnergyDataE19TemperatureCouplingE3$_0E10_M_managerERSt9_Any_dataRKSC_St18_Manager_operation.exit": ; preds = %3, %6, %5, %4
  ret i1 false
}